; Function Attrs: mustprogress uwtable
define void @_ZN2cv18GStreamingCompiled4stopEv(ptr noundef nonnull readonly align 8 captures(none) dereferenceable(16) %0) local_unnamed_addr #3 align 2 {
  %2 = load ptr, ptr %0, align 8, !tbaa !31
  %3 = getelementptr inbounds nuw i8, ptr %2, i64 48
  %4 = load ptr, ptr %3, align 8, !tbaa !3
  %5 = load ptr, ptr %4, align 8, !tbaa !8
  %6 = getelementptr inbounds nuw i8, ptr %5, i64 64
  %7 = load ptr, ptr %6, align 8
  tail call void %7(ptr noundef nonnull align 8 dereferenceable(137) %4)
  ret void
}